; Function Attrs: mustprogress nounwind uwtable
define internal fastcc noundef ptr @_ZL9printNodePKN4llvm16itanium_demangle4NodeEPcPm(ptr noundef %0, ptr noundef %1, ptr noundef %2) unnamed_addr #1 {
  %4 = alloca %"class.llvm::itanium_demangle::OutputBuffer", align 8
  %.not.i = icmp eq ptr %1, null
  br i1 %.not.i, label %_ZN4llvm16itanium_demangle12OutputBufferC2EPcPm.exit, label %.split.i

.split.i:                                         ; preds = %3
  %5 = load i64, ptr %2, align 8
  br label %_ZN4llvm16itanium_demangle12OutputBufferC2EPcPm.exit

_ZN4llvm16itanium_demangle12OutputBufferC2EPcPm.exit: ; preds = %3, %.split.i
  %.sink.i = phi i64 [ %5, %.split.i ], [ 0, %3 ]
  store ptr %1, ptr %4, align 8
  %6 = getelementptr inbounds nuw i8, ptr %4, i64 8
  store i64 0, ptr %6, align 8
  %7 = getelementptr inbounds nuw i8, ptr %4, i64 16
  store i64 %.sink.i, ptr %7, align 8
  %8 = getelementptr inbounds nuw i8, ptr %4, i64 24
  store i32 -1, ptr %8, align 8
  %9 = getelementptr inbounds nuw i8, ptr %4, i64 28
  store i32 -1, ptr %9, align 4
  %10 = getelementptr inbounds nuw i8, ptr %4, i64 32
  store i32 1, ptr %10, align 8
  %11 = load ptr, ptr %0, align 8
  %12 = getelementptr inbounds i8, ptr %11, i64 32
  %13 = load ptr, ptr %12, align 8
  call void %13(ptr noundef nonnull align 8 dereferenceable(11) %0, ptr noundef nonnull align 8 dereferenceable(36) %4) #20
  %14 = getelementptr inbounds nuw i8, ptr %0, i64 9
  %15 = load i16, ptr %14, align 1
  %.mask3.i = and i16 %15, 192
  %.not.i5 = icmp eq i16 %.mask3.i, 64
  br i1 %.not.i5, label %_ZNK4llvm16itanium_demangle4Node5printERNS0_12OutputBufferE.exit, label %16

16:                                               ; preds = %_ZN4llvm16itanium_demangle12OutputBufferC2EPcPm.exit
  %17 = load ptr, ptr %0, align 8
  %18 = getelementptr inbounds i8, ptr %17, i64 40
  %19 = load ptr, ptr %18, align 8
  call void %19(ptr noundef nonnull align 8 dereferenceable(11) %0, ptr noundef nonnull align 8 dereferenceable(36) %4) #20
  br label %_ZNK4llvm16itanium_demangle4Node5printERNS0_12OutputBufferE.exit

_ZNK4llvm16itanium_demangle4Node5printERNS0_12OutputBufferE.exit: ; preds = %_ZN4llvm16itanium_demangle12OutputBufferC2EPcPm.exit, %16
  %20 = load i64, ptr %6, align 8
  %21 = add i64 %20, 1
  %22 = load i64, ptr %7, align 8
  %23 = icmp ugt i64 %21, %22
  %.pre.i = load ptr, ptr %4, align 8
  br i1 %23, label %24, label %_ZN4llvm16itanium_demangle12OutputBufferpLEc.exit

24:                                               ; preds = %_ZNK4llvm16itanium_demangle4Node5printERNS0_12OutputBufferE.exit
  %25 = add i64 %20, 993
  %26 = shl i64 %22, 1
  %spec.select.i.i = call i64 @llvm.umax.i64(i64 %26, i64 %25)
  store i64 %spec.select.i.i, ptr %7, align 8
  %27 = call ptr @realloc(ptr noundef %.pre.i, i64 noundef %spec.select.i.i) #21
  store ptr %27, ptr %4, align 8
  %28 = icmp eq ptr %27, null
  br i1 %28, label %29, label %._ZN4llvm16itanium_demangle12OutputBuffer4growEm.exit_crit_edge.i

._ZN4llvm16itanium_demangle12OutputBuffer4growEm.exit_crit_edge.i: ; preds = %24
  %.pre1.i = load i64, ptr %6, align 8
  %.pre2.i = add i64 %.pre1.i, 1
  br label %_ZN4llvm16itanium_demangle12OutputBufferpLEc.exit

29:                                               ; preds = %24
  call void @abort() #22
  unreachable

_ZN4llvm16itanium_demangle12OutputBufferpLEc.exit: ; preds = %_ZNK4llvm16itanium_demangle4Node5printERNS0_12OutputBufferE.exit, %._ZN4llvm16itanium_demangle12OutputBuffer4growEm.exit_crit_edge.i
  %.pre-phi.i = phi i64 [ %.pre2.i, %._ZN4llvm16itanium_demangle12OutputBuffer4growEm.exit_crit_edge.i ], [ %21, %_ZNK4llvm16itanium_demangle4Node5printERNS0_12OutputBufferE.exit ]
  %30 = phi i64 [ %.pre1.i, %._ZN4llvm16itanium_demangle12OutputBuffer4growEm.exit_crit_edge.i ], [ %20, %_ZNK4llvm16itanium_demangle4Node5printERNS0_12OutputBufferE.exit ]
  %31 = phi ptr [ %27, %._ZN4llvm16itanium_demangle12OutputBuffer4growEm.exit_crit_edge.i ], [ %.pre.i, %_ZNK4llvm16itanium_demangle4Node5printERNS0_12OutputBufferE.exit ]
  store i64 %.pre-phi.i, ptr %6, align 8
  %32 = getelementptr inbounds i8, ptr %31, i64 %30
  store i8 0, ptr %32, align 1
  %.not = icmp eq ptr %2, null
  br i1 %.not, label %35, label %33

33:                                               ; preds = %_ZN4llvm16itanium_demangle12OutputBufferpLEc.exit
  %34 = load i64, ptr %6, align 8
  store i64 %34, ptr %2, align 8
  br label %35

35:                                               ; preds = %33, %_ZN4llvm16itanium_demangle12OutputBufferpLEc.exit
  %36 = load ptr, ptr %4, align 8
  ret ptr %36
}